target datalayout = "e-m:e-p270:32:32-p271:32:32-p272:64:64-i64:64-i128:128-f80:128-n8:16:32:64-S128"
target triple = "x86_64-pc-linux-gnu"

%"class.llvm::SmallVectorBase" = type { ptr, i32, i32 }
%"struct.llvm::Align" = type { i8 }
%"class.llvm::Register" = type { i32 }
%"class.llvm::MachineInstr" = type <{ %"class.llvm::ilist_node_with_parent", ptr, ptr, ptr, [3 x i8], %"class.llvm::ArrayRecycler<llvm::MachineOperand>::Capacity", i32, %"class.llvm::PointerSumType", %"class.llvm::DebugLoc", i32, i16, [2 x i8] }>
%"class.llvm::ilist_node_with_parent" = type { %"class.llvm::ilist_node" }
%"class.llvm::ilist_node" = type { %"class.llvm::ilist_node_impl" }
%"class.llvm::ilist_node_impl" = type { %"class.llvm::ilist_node_base" }
%"class.llvm::ilist_node_base" = type { %"class.llvm::ilist_detail::node_base_prevnext" }
%"class.llvm::ilist_detail::node_base_prevnext" = type { %"class.llvm::PointerIntPair", ptr }
%"class.llvm::PointerIntPair" = type { %"struct.llvm::detail::PunnedPointer" }
%"struct.llvm::detail::PunnedPointer" = type { [8 x i8] }
%"class.llvm::ArrayRecycler<llvm::MachineOperand>::Capacity" = type { i8 }
%"class.llvm::PointerSumType" = type { %"union.llvm::PointerSumType<llvm::MachineInstr::ExtraInfoInlineKinds, llvm::PointerSumTypeMember<0, llvm::MachineMemOperand *>, llvm::PointerSumTypeMember<1, llvm::MCSymbol *>, llvm::PointerSumTypeMember<2, llvm::MCSymbol *>, llvm::PointerSumTypeMember<3, llvm::MachineInstr::ExtraInfo *>>::StorageT" }
%"union.llvm::PointerSumType<llvm::MachineInstr::ExtraInfoInlineKinds, llvm::PointerSumTypeMember<0, llvm::MachineMemOperand *>, llvm::PointerSumTypeMember<1, llvm::MCSymbol *>, llvm::PointerSumTypeMember<2, llvm::MCSymbol *>, llvm::PointerSumTypeMember<3, llvm::MachineInstr::ExtraInfo *>>::StorageT" = type { i64 }
%"class.llvm::DebugLoc" = type { %"class.llvm::TypedTrackingMDRef" }
%"class.llvm::TypedTrackingMDRef" = type { %"class.llvm::TrackingMDRef" }
%"class.llvm::TrackingMDRef" = type { ptr }
%"class.llvm::MachineOperand" = type { i32, %union.anon.79, ptr, %"union.llvm::MachineOperand::ContentsUnion" }
%union.anon.79 = type { i32 }
%"union.llvm::MachineOperand::ContentsUnion" = type { %"class.llvm::ArrayRef.80" }
%"class.llvm::ArrayRef.80" = type { ptr, i64 }
%"class.llvm::ilist_node_impl.101" = type { %"class.llvm::ilist_node_base.102" }
%"class.llvm::ilist_node_base.102" = type { %"class.llvm::ilist_detail::node_base_prevnext.103" }
%"class.llvm::ilist_detail::node_base_prevnext.103" = type { ptr, ptr }
%"class.llvm::MachineFunction" = type <{ ptr, ptr, ptr, ptr, ptr, ptr, ptr, ptr, ptr, ptr, ptr, ptr, %"class.std::vector.130", i32, [4 x i8], %"class.llvm::BumpPtrAllocatorImpl", %"class.llvm::Recycler", %"class.llvm::ArrayRecycler", %"class.llvm::Recycler.151", %"class.llvm::iplist.152", i32, %"struct.llvm::Align", i8, i8, i8, %"class.llvm::MachineFunctionProperties", %"class.std::unique_ptr.161", %"class.std::vector.169", %"class.std::vector.174", %"class.std::vector.174", %"class.std::vector.179", %"class.llvm::DenseMap.184", %"class.llvm::DenseMap.187", %"class.llvm::DenseMap.190", %"class.std::vector.193", i8, i8, i8, i8, i8, i8, [2 x i8], i32, i32, %"class.std::vector.198", %"class.std::vector.203", %"class.std::vector.203", i32, [4 x i8], ptr, ptr, %"class.llvm::DenseMap.208", %"class.llvm::SmallVector.211", i32, [4 x i8], %"class.llvm::SmallVector.216", %"class.llvm::DenseMap.221", i8, [7 x i8] }>
%"class.std::vector.130" = type { %"struct.std::_Vector_base.131" }
%"struct.std::_Vector_base.131" = type { %"struct.std::_Vector_base<llvm::MachineBasicBlock *, std::allocator<llvm::MachineBasicBlock *>>::_Vector_impl" }
%"struct.std::_Vector_base<llvm::MachineBasicBlock *, std::allocator<llvm::MachineBasicBlock *>>::_Vector_impl" = type { %"struct.std::_Vector_base<llvm::MachineBasicBlock *, std::allocator<llvm::MachineBasicBlock *>>::_Vector_impl_data" }
%"struct.std::_Vector_base<llvm::MachineBasicBlock *, std::allocator<llvm::MachineBasicBlock *>>::_Vector_impl_data" = type { ptr, ptr, ptr }
%"class.llvm::BumpPtrAllocatorImpl" = type { ptr, ptr, %"class.llvm::SmallVector.136", %"class.llvm::SmallVector.141", i64, i64 }
%"class.llvm::SmallVector.136" = type { %"class.llvm::SmallVectorImpl.137", %"struct.llvm::SmallVectorStorage.140" }
%"class.llvm::SmallVectorImpl.137" = type { %"class.llvm::SmallVectorTemplateBase.138" }
%"class.llvm::SmallVectorTemplateBase.138" = type { %"class.llvm::SmallVectorTemplateCommon.139" }
%"class.llvm::SmallVectorTemplateCommon.139" = type { %"class.llvm::SmallVectorBase" }
%"struct.llvm::SmallVectorStorage.140" = type { [32 x i8] }
%"class.llvm::SmallVector.141" = type { %"class.llvm::SmallVectorImpl.142" }
%"class.llvm::SmallVectorImpl.142" = type { %"class.llvm::SmallVectorTemplateBase.143" }
%"class.llvm::SmallVectorTemplateBase.143" = type { %"class.llvm::SmallVectorTemplateCommon.144" }
%"class.llvm::SmallVectorTemplateCommon.144" = type { %"class.llvm::SmallVectorBase" }
%"class.llvm::Recycler" = type { ptr }
%"class.llvm::ArrayRecycler" = type { %"class.llvm::SmallVector.146" }
%"class.llvm::SmallVector.146" = type { %"class.llvm::SmallVectorImpl.147", %"struct.llvm::SmallVectorStorage.150" }
%"class.llvm::SmallVectorImpl.147" = type { %"class.llvm::SmallVectorTemplateBase.148" }
%"class.llvm::SmallVectorTemplateBase.148" = type { %"class.llvm::SmallVectorTemplateCommon.149" }
%"class.llvm::SmallVectorTemplateCommon.149" = type { %"class.llvm::SmallVectorBase" }
%"struct.llvm::SmallVectorStorage.150" = type { [64 x i8] }
%"class.llvm::Recycler.151" = type { ptr }
%"class.llvm::iplist.152" = type { %"class.llvm::iplist_impl.153" }
%"class.llvm::iplist_impl.153" = type { %"class.llvm::simple_ilist.155" }
%"class.llvm::simple_ilist.155" = type { %"class.llvm::ilist_sentinel.158" }
%"class.llvm::ilist_sentinel.158" = type { %"class.llvm::ilist_node_impl.101" }
%"class.llvm::MachineFunctionProperties" = type { %"class.std::bitset.159" }
%"class.std::bitset.159" = type { %"struct.std::_Base_bitset.160" }
%"struct.std::_Base_bitset.160" = type { i64 }
%"class.std::unique_ptr.161" = type { %"struct.std::__uniq_ptr_data.162" }
%"struct.std::__uniq_ptr_data.162" = type { %"class.std::__uniq_ptr_impl.163" }
%"class.std::__uniq_ptr_impl.163" = type { %"class.std::tuple.164" }
%"class.std::tuple.164" = type { %"struct.std::_Tuple_impl.165" }
%"struct.std::_Tuple_impl.165" = type { %"struct.std::_Head_base.168" }
%"struct.std::_Head_base.168" = type { ptr }
%"class.std::vector.169" = type { %"struct.std::_Vector_base.170" }
%"struct.std::_Vector_base.170" = type { %"struct.std::_Vector_base<llvm::MCCFIInstruction, std::allocator<llvm::MCCFIInstruction>>::_Vector_impl" }
%"struct.std::_Vector_base<llvm::MCCFIInstruction, std::allocator<llvm::MCCFIInstruction>>::_Vector_impl" = type { %"struct.std::_Vector_base<llvm::MCCFIInstruction, std::allocator<llvm::MCCFIInstruction>>::_Vector_impl_data" }
%"struct.std::_Vector_base<llvm::MCCFIInstruction, std::allocator<llvm::MCCFIInstruction>>::_Vector_impl_data" = type { ptr, ptr, ptr }
%"class.std::vector.174" = type { %"struct.std::_Vector_base.175" }
%"struct.std::_Vector_base.175" = type { %"struct.std::_Vector_base<llvm::MCSymbol *, std::allocator<llvm::MCSymbol *>>::_Vector_impl" }
%"struct.std::_Vector_base<llvm::MCSymbol *, std::allocator<llvm::MCSymbol *>>::_Vector_impl" = type { %"struct.std::_Vector_base<llvm::MCSymbol *, std::allocator<llvm::MCSymbol *>>::_Vector_impl_data" }
%"struct.std::_Vector_base<llvm::MCSymbol *, std::allocator<llvm::MCSymbol *>>::_Vector_impl_data" = type { ptr, ptr, ptr }
%"class.std::vector.179" = type { %"struct.std::_Vector_base.180" }
%"struct.std::_Vector_base.180" = type { %"struct.std::_Vector_base<llvm::LandingPadInfo, std::allocator<llvm::LandingPadInfo>>::_Vector_impl" }
%"struct.std::_Vector_base<llvm::LandingPadInfo, std::allocator<llvm::LandingPadInfo>>::_Vector_impl" = type { %"struct.std::_Vector_base<llvm::LandingPadInfo, std::allocator<llvm::LandingPadInfo>>::_Vector_impl_data" }
%"struct.std::_Vector_base<llvm::LandingPadInfo, std::allocator<llvm::LandingPadInfo>>::_Vector_impl_data" = type { ptr, ptr, ptr }
%"class.llvm::DenseMap.184" = type <{ ptr, i32, i32, i32, [4 x i8] }>
%"class.llvm::DenseMap.187" = type <{ ptr, i32, i32, i32, [4 x i8] }>
%"class.llvm::DenseMap.190" = type <{ ptr, i32, i32, i32, [4 x i8] }>
%"class.std::vector.193" = type { %"struct.std::_Vector_base.194" }
%"struct.std::_Vector_base.194" = type { %"struct.std::_Vector_base<std::pair<llvm::MCSymbol *, llvm::MDNode *>, std::allocator<std::pair<llvm::MCSymbol *, llvm::MDNode *>>>::_Vector_impl" }
%"struct.std::_Vector_base<std::pair<llvm::MCSymbol *, llvm::MDNode *>, std::allocator<std::pair<llvm::MCSymbol *, llvm::MDNode *>>>::_Vector_impl" = type { %"struct.std::_Vector_base<std::pair<llvm::MCSymbol *, llvm::MDNode *>, std::allocator<std::pair<llvm::MCSymbol *, llvm::MDNode *>>>::_Vector_impl_data" }
%"struct.std::_Vector_base<std::pair<llvm::MCSymbol *, llvm::MDNode *>, std::allocator<std::pair<llvm::MCSymbol *, llvm::MDNode *>>>::_Vector_impl_data" = type { ptr, ptr, ptr }
%"class.std::vector.198" = type { %"struct.std::_Vector_base.199" }
%"struct.std::_Vector_base.199" = type { %"struct.std::_Vector_base<const llvm::GlobalValue *, std::allocator<const llvm::GlobalValue *>>::_Vector_impl" }
%"struct.std::_Vector_base<const llvm::GlobalValue *, std::allocator<const llvm::GlobalValue *>>::_Vector_impl" = type { %"struct.std::_Vector_base<const llvm::GlobalValue *, std::allocator<const llvm::GlobalValue *>>::_Vector_impl_data" }
%"struct.std::_Vector_base<const llvm::GlobalValue *, std::allocator<const llvm::GlobalValue *>>::_Vector_impl_data" = type { ptr, ptr, ptr }
%"class.std::vector.203" = type { %"struct.std::_Vector_base.204" }
%"struct.std::_Vector_base.204" = type { %"struct.std::_Vector_base<unsigned int, std::allocator<unsigned int>>::_Vector_impl" }
%"struct.std::_Vector_base<unsigned int, std::allocator<unsigned int>>::_Vector_impl" = type { %"struct.std::_Vector_base<unsigned int, std::allocator<unsigned int>>::_Vector_impl_data" }
%"struct.std::_Vector_base<unsigned int, std::allocator<unsigned int>>::_Vector_impl_data" = type { ptr, ptr, ptr }
%"class.llvm::DenseMap.208" = type <{ ptr, i32, i32, i32, [4 x i8] }>
%"class.llvm::SmallVector.211" = type { %"class.llvm::SmallVectorImpl.212", %"struct.llvm::SmallVectorStorage.215" }
%"class.llvm::SmallVectorImpl.212" = type { %"class.llvm::SmallVectorTemplateBase.213" }
%"class.llvm::SmallVectorTemplateBase.213" = type { %"class.llvm::SmallVectorTemplateCommon.214" }
%"class.llvm::SmallVectorTemplateCommon.214" = type { %"class.llvm::SmallVectorBase" }
%"struct.llvm::SmallVectorStorage.215" = type { [128 x i8] }
%"class.llvm::SmallVector.216" = type { %"class.llvm::SmallVectorImpl.217", %"struct.llvm::SmallVectorStorage.220" }
%"class.llvm::SmallVectorImpl.217" = type { %"class.llvm::SmallVectorTemplateBase.218" }
%"class.llvm::SmallVectorTemplateBase.218" = type { %"class.llvm::SmallVectorTemplateCommon.219" }
%"class.llvm::SmallVectorTemplateCommon.219" = type { %"class.llvm::SmallVectorBase" }
%"struct.llvm::SmallVectorStorage.220" = type { [160 x i8] }
%"class.llvm::DenseMap.221" = type <{ ptr, i32, i32, i32, [4 x i8] }>

; Function Attrs: mustprogress nounwind uwtable
define linkonce_odr hidden void @_ZN4llvm8RegisterC2Ej(ptr noundef nonnull align 4 dereferenceable(4) %0, i32 noundef %1) unnamed_addr #0 comdat align 2 {
  %3 = alloca ptr, align 8
  %4 = alloca i32, align 4
  store ptr %0, ptr %3, align 8
  store i32 %1, ptr %4, align 4
  %5 = load ptr, ptr %3, align 8
  %6 = getelementptr inbounds nuw %"class.llvm::Register", ptr %5, i32 0, i32 0
  %7 = load i32, ptr %4, align 4
  store i32 %7, ptr %6, align 4
  ret void
}

; Function Attrs: mustprogress nounwind uwtable
define linkonce_odr hidden i32 @_ZNK4llvm14MachineOperand6getRegEv(ptr noundef nonnull align 8 dereferenceable(32) %0) #0 comdat align 2 {
  %2 = alloca %"class.llvm::Register", align 4
  %3 = alloca ptr, align 8
  store ptr %0, ptr %3, align 8
  %4 = load ptr, ptr %3, align 8
  %5 = getelementptr inbounds nuw %"class.llvm::MachineOperand", ptr %4, i32 0, i32 1
  %6 = load i32, ptr %5, align 4
  call void @_ZN4llvm8RegisterC2Ej(ptr noundef nonnull align 4 dereferenceable(4) %2, i32 noundef %6)
  %7 = getelementptr inbounds nuw %"class.llvm::Register", ptr %2, i32 0, i32 0
  %8 = load i32, ptr %7, align 4
  ret i32 %8
}

; Function Attrs: mustprogress nounwind uwtable
define linkonce_odr hidden noundef nonnull align 8 dereferenceable(32) ptr @_ZN4llvm12MachineInstr10getOperandEj(ptr noundef nonnull align 8 dereferenceable(70) %0, i32 noundef %1) #0 comdat align 2 {
  %3 = alloca ptr, align 8
  %4 = alloca i32, align 4
  store ptr %0, ptr %3, align 8
  store i32 %1, ptr %4, align 4
  %5 = load ptr, ptr %3, align 8
  %6 = getelementptr inbounds nuw %"class.llvm::MachineInstr", ptr %5, i32 0, i32 3
  %7 = load ptr, ptr %6, align 8
  %8 = load i32, ptr %4, align 4
  %9 = zext i32 %8 to i64
  %10 = getelementptr inbounds %"class.llvm::MachineOperand", ptr %7, i64 %9
  ret ptr %10
}

; Function Attrs: mustprogress nounwind uwtable
define linkonce_odr hidden noundef nonnull align 8 dereferenceable(512) ptr @_ZN4llvm15MachineFunction10getRegInfoEv(ptr noundef nonnull align 8 dereferenceable(1041) %0) #0 comdat align 2 {
  %2 = alloca ptr, align 8
  store ptr %0, ptr %2, align 8
  %3 = load ptr, ptr %2, align 8
  %4 = getelementptr inbounds nuw %"class.llvm::MachineFunction", ptr %3, i32 0, i32 4
  %5 = load ptr, ptr %4, align 8
  ret ptr %5
}

; Function Attrs: mustprogress nounwind uwtable
define linkonce_odr hidden noundef ptr @_ZN4llvm12MachineInstr5getMFEv(ptr noundef nonnull align 8 dereferenceable(70) %0) #0 comdat align 2 {
  %2 = alloca ptr, align 8
  store ptr %0, ptr %2, align 8
  %3 = load ptr, ptr %2, align 8
  %4 = call noundef ptr @_ZNK4llvm12MachineInstr5getMFEv(ptr noundef nonnull align 8 dereferenceable(70) %3)
  ret ptr %4
}

; Function Attrs: mustprogress nounwind uwtable
define dso_local void @_ZNK4llvm14RISCVInstrInfo26genAlternativeCodeSequenceERNS_12MachineInstrEjRNS_15SmallVectorImplIPS1_EES6_RNS_8DenseMapIjjNS_12DenseMapInfoIjvEENS_6detail12DenseMapPairIjjEEEE(ptr noundef nonnull align 8 dereferenceable(88) %0, ptr noundef nonnull align 8 dereferenceable(70) %1, i32 noundef %2, ptr noundef nonnull align 8 dereferenceable(16) %3, ptr noundef nonnull align 8 dereferenceable(16) %4, ptr noundef nonnull align 8 dereferenceable(20) %5) unnamed_addr #0 align 2 {
  %7 = alloca ptr, align 8
  %8 = alloca ptr, align 8
  %9 = alloca i32, align 4
  %10 = alloca ptr, align 8
  %11 = alloca ptr, align 8
  %12 = alloca ptr, align 8
  %13 = alloca ptr, align 8
  %14 = alloca ptr, align 8
  %15 = alloca %"class.llvm::Register", align 4
  %16 = alloca ptr, align 8
  %17 = alloca %"class.llvm::Register", align 4
  store ptr %0, ptr %7, align 8
  store ptr %1, ptr %8, align 8
  store i32 %2, ptr %9, align 4
  store ptr %3, ptr %10, align 8
  store ptr %4, ptr %11, align 8
  store ptr %5, ptr %12, align 8
  %18 = load ptr, ptr %7, align 8
  %19 = load ptr, ptr %8, align 8
  %20 = call noundef ptr @_ZN4llvm12MachineInstr5getMFEv(ptr noundef nonnull align 8 dereferenceable(70) %19)
  %21 = call noundef nonnull align 8 dereferenceable(512) ptr @_ZN4llvm15MachineFunction10getRegInfoEv(ptr noundef nonnull align 8 dereferenceable(1041) %20)
  store ptr %21, ptr %13, align 8
  %22 = load i32, ptr %9, align 4
  switch i32 %22, label %23 [
    i32 4, label %29
    i32 6, label %29
    i32 5, label %43
    i32 7, label %43
    i32 8, label %57
    i32 9, label %62
  ]

23:                                               ; preds = %6
  %24 = load ptr, ptr %8, align 8
  %25 = load i32, ptr %9, align 4
  %26 = load ptr, ptr %10, align 8
  %27 = load ptr, ptr %11, align 8
  %28 = load ptr, ptr %12, align 8
  call void @_ZNK4llvm15TargetInstrInfo26genAlternativeCodeSequenceERNS_12MachineInstrEjRNS_15SmallVectorImplIPS1_EES6_RNS_8DenseMapIjjNS_12DenseMapInfoIjvEENS_6detail12DenseMapPairIjjEEEE(ptr noundef nonnull align 8 dereferenceable(80) %18, ptr noundef nonnull align 8 dereferenceable(70) %24, i32 noundef %25, ptr noundef nonnull align 8 dereferenceable(16) %26, ptr noundef nonnull align 8 dereferenceable(16) %27, ptr noundef nonnull align 8 dereferenceable(20) %28)
  br label %67

29:                                               ; preds = %6, %6
  %30 = load ptr, ptr %13, align 8
  %31 = load ptr, ptr %8, align 8
  %32 = call noundef nonnull align 8 dereferenceable(32) ptr @_ZN4llvm12MachineInstr10getOperandEj(ptr noundef nonnull align 8 dereferenceable(70) %31, i32 noundef 1)
  %33 = call i32 @_ZNK4llvm14MachineOperand6getRegEv(ptr noundef nonnull align 8 dereferenceable(32) %32)
  %34 = getelementptr inbounds nuw %"class.llvm::Register", ptr %15, i32 0, i32 0
  store i32 %33, ptr %34, align 4
  %35 = getelementptr inbounds nuw %"class.llvm::Register", ptr %15, i32 0, i32 0
  %36 = load i32, ptr %35, align 4
  %37 = call noundef ptr @_ZNK4llvm19MachineRegisterInfo10getVRegDefENS_8RegisterE(ptr noundef nonnull align 8 dereferenceable(512) %30, i32 %36)
  store ptr %37, ptr %14, align 8
  %38 = load ptr, ptr %8, align 8
  %39 = load ptr, ptr %14, align 8
  %40 = load i32, ptr %9, align 4
  %41 = load ptr, ptr %10, align 8
  %42 = load ptr, ptr %11, align 8
  call void @_ZL22combineFPFusedMultiplyRN4llvm12MachineInstrES1_jRNS_15SmallVectorImplIPS0_EES5_(ptr noundef nonnull align 8 dereferenceable(70) %38, ptr noundef nonnull align 8 dereferenceable(70) %39, i32 noundef %40, ptr noundef nonnull align 8 dereferenceable(16) %41, ptr noundef nonnull align 8 dereferenceable(16) %42)
  br label %67

43:                                               ; preds = %6, %6
  %44 = load ptr, ptr %13, align 8
  %45 = load ptr, ptr %8, align 8
  %46 = call noundef nonnull align 8 dereferenceable(32) ptr @_ZN4llvm12MachineInstr10getOperandEj(ptr noundef nonnull align 8 dereferenceable(70) %45, i32 noundef 2)
  %47 = call i32 @_ZNK4llvm14MachineOperand6getRegEv(ptr noundef nonnull align 8 dereferenceable(32) %46)
  %48 = getelementptr inbounds nuw %"class.llvm::Register", ptr %17, i32 0, i32 0
  store i32 %47, ptr %48, align 4
  %49 = getelementptr inbounds nuw %"class.llvm::Register", ptr %17, i32 0, i32 0
  %50 = load i32, ptr %49, align 4
  %51 = call noundef ptr @_ZNK4llvm19MachineRegisterInfo10getVRegDefENS_8RegisterE(ptr noundef nonnull align 8 dereferenceable(512) %44, i32 %50)
  store ptr %51, ptr %16, align 8
  %52 = load ptr, ptr %8, align 8
  %53 = load ptr, ptr %16, align 8
  %54 = load i32, ptr %9, align 4
  %55 = load ptr, ptr %10, align 8
  %56 = load ptr, ptr %11, align 8
  call void @_ZL22combineFPFusedMultiplyRN4llvm12MachineInstrES1_jRNS_15SmallVectorImplIPS0_EES5_(ptr noundef nonnull align 8 dereferenceable(70) %52, ptr noundef nonnull align 8 dereferenceable(70) %53, i32 noundef %54, ptr noundef nonnull align 8 dereferenceable(16) %55, ptr noundef nonnull align 8 dereferenceable(16) %56)
  br label %67

57:                                               ; preds = %6
  %58 = load ptr, ptr %8, align 8
  %59 = load ptr, ptr %10, align 8
  %60 = load ptr, ptr %11, align 8
  %61 = load ptr, ptr %12, align 8
  call void @_ZL17genShXAddAddShiftRN4llvm12MachineInstrEjRNS_15SmallVectorImplIPS0_EES5_RNS_8DenseMapIjjNS_12DenseMapInfoIjvEENS_6detail12DenseMapPairIjjEEEE(ptr noundef nonnull align 8 dereferenceable(70) %58, i32 noundef 1, ptr noundef nonnull align 8 dereferenceable(16) %59, ptr noundef nonnull align 8 dereferenceable(16) %60, ptr noundef nonnull align 8 dereferenceable(20) %61)
  br label %67

62:                                               ; preds = %6
  %63 = load ptr, ptr %8, align 8
  %64 = load ptr, ptr %10, align 8
  %65 = load ptr, ptr %11, align 8
  %66 = load ptr, ptr %12, align 8
  call void @_ZL17genShXAddAddShiftRN4llvm12MachineInstrEjRNS_15SmallVectorImplIPS0_EES5_RNS_8DenseMapIjjNS_12DenseMapInfoIjvEENS_6detail12DenseMapPairIjjEEEE(ptr noundef nonnull align 8 dereferenceable(70) %63, i32 noundef 2, ptr noundef nonnull align 8 dereferenceable(16) %64, ptr noundef nonnull align 8 dereferenceable(16) %65, ptr noundef nonnull align 8 dereferenceable(20) %66)
  br label %67

67:                                               ; preds = %62, %57, %43, %29, %23
  ret void
}