; Function Attrs: mustprogress nounwind uwtable
define dso_local void @_ZNK4llvm14RISCVInstrInfo26genAlternativeCodeSequenceERNS_12MachineInstrEjRNS_15SmallVectorImplIPS1_EES6_RNS_8DenseMapIjjNS_12DenseMapInfoIjvEENS_6detail12DenseMapPairIjjEEEE(ptr noundef nonnull align 8 dereferenceable(88) %0, ptr noundef nonnull align 8 dereferenceable(70) %1, i32 noundef %2, ptr noundef nonnull align 8 dereferenceable(16) %3, ptr noundef nonnull align 8 dereferenceable(16) %4, ptr noundef nonnull align 8 dereferenceable(20) %5) unnamed_addr #2 align 2 {
  %7 = tail call noundef ptr @_ZNK4llvm12MachineInstr5getMFEv(ptr noundef nonnull align 8 dereferenceable(70) %1) #25
  %8 = getelementptr inbounds nuw i8, ptr %7, i64 32
  %9 = load ptr, ptr %8, align 8
  switch i32 %2, label %10 [
    i32 4, label %11
    i32 6, label %11
    i32 5, label %17
    i32 7, label %17
    i32 8, label %23
    i32 9, label %24
  ]

10:                                               ; preds = %6
  tail call void @_ZNK4llvm15TargetInstrInfo26genAlternativeCodeSequenceERNS_12MachineInstrEjRNS_15SmallVectorImplIPS1_EES6_RNS_8DenseMapIjjNS_12DenseMapInfoIjvEENS_6detail12DenseMapPairIjjEEEE(ptr noundef nonnull align 8 dereferenceable(80) %0, ptr noundef nonnull align 8 dereferenceable(70) %1, i32 noundef %2, ptr noundef nonnull align 8 dereferenceable(16) %3, ptr noundef nonnull align 8 dereferenceable(16) %4, ptr noundef nonnull align 8 dereferenceable(20) %5) #25
  br label %25

11:                                               ; preds = %6, %6
  %12 = getelementptr inbounds nuw i8, ptr %1, i64 32
  %13 = load ptr, ptr %12, align 8
  %14 = getelementptr inbounds i8, ptr %13, i64 36
  %15 = load i32, ptr %14, align 4
  %16 = tail call noundef ptr @_ZNK4llvm19MachineRegisterInfo10getVRegDefENS_8RegisterE(ptr noundef nonnull align 8 dereferenceable(512) %9, i32 %15) #25
  tail call fastcc void @_ZL22combineFPFusedMultiplyRN4llvm12MachineInstrES1_jRNS_15SmallVectorImplIPS0_EES5_(ptr noundef nonnull align 8 dereferenceable(70) %1, ptr noundef nonnull align 8 dereferenceable(70) %16, i32 noundef %2, ptr noundef nonnull align 8 dereferenceable(16) %3, ptr noundef nonnull align 8 dereferenceable(16) %4)
  br label %25

17:                                               ; preds = %6, %6
  %18 = getelementptr inbounds nuw i8, ptr %1, i64 32
  %19 = load ptr, ptr %18, align 8
  %20 = getelementptr inbounds i8, ptr %19, i64 68
  %21 = load i32, ptr %20, align 4
  %22 = tail call noundef ptr @_ZNK4llvm19MachineRegisterInfo10getVRegDefENS_8RegisterE(ptr noundef nonnull align 8 dereferenceable(512) %9, i32 %21) #25
  tail call fastcc void @_ZL22combineFPFusedMultiplyRN4llvm12MachineInstrES1_jRNS_15SmallVectorImplIPS0_EES5_(ptr noundef nonnull align 8 dereferenceable(70) %1, ptr noundef nonnull align 8 dereferenceable(70) %22, i32 noundef %2, ptr noundef nonnull align 8 dereferenceable(16) %3, ptr noundef nonnull align 8 dereferenceable(16) %4)
  br label %25

23:                                               ; preds = %6
  tail call fastcc void @_ZL17genShXAddAddShiftRN4llvm12MachineInstrEjRNS_15SmallVectorImplIPS0_EES5_RNS_8DenseMapIjjNS_12DenseMapInfoIjvEENS_6detail12DenseMapPairIjjEEEE(ptr noundef nonnull align 8 dereferenceable(70) %1, i32 noundef 1, ptr noundef nonnull align 8 dereferenceable(16) %3, ptr noundef nonnull align 8 dereferenceable(16) %4, ptr noundef nonnull align 8 dereferenceable(20) %5)
  br label %25

24:                                               ; preds = %6
  tail call fastcc void @_ZL17genShXAddAddShiftRN4llvm12MachineInstrEjRNS_15SmallVectorImplIPS0_EES5_RNS_8DenseMapIjjNS_12DenseMapInfoIjvEENS_6detail12DenseMapPairIjjEEEE(ptr noundef nonnull align 8 dereferenceable(70) %1, i32 noundef 2, ptr noundef nonnull align 8 dereferenceable(16) %3, ptr noundef nonnull align 8 dereferenceable(16) %4, ptr noundef nonnull align 8 dereferenceable(20) %5)
  br label %25

25:                                               ; preds = %24, %23, %17, %11, %10
  ret void
}